target datalayout = "e-m:e-p270:32:32-p271:32:32-p272:64:64-i64:64-i128:128-f80:128-n8:16:32:64-S128"
target triple = "x86_64-pc-linux-gnu"

%struct.curl_trc_feat = type { ptr, i32 }
%struct.connectdata = type { %struct.Curl_llist_node, ptr, ptr, i64, ptr, i64, ptr, ptr, %struct.hostname, ptr, ptr, %struct.hostname, %struct.proxy_info, %struct.proxy_info, %struct.ip_quadruple, %struct.ip_quadruple, ptr, ptr, ptr, ptr, ptr, %struct.curltime, %struct.curltime, %struct.curltime, [2 x i32], [2 x ptr], [2 x ptr], [2 x ptr], %struct.anon, %struct.easy_pollset, %struct.ssl_primary_config, %struct.ssl_primary_config, %struct.ConnectBits, ptr, ptr, %struct.curltime, i32, i32, %struct.Curl_llist, i32, i32, %struct.ntlmdata, %struct.ntlmdata, %union.anon.1, ptr, ptr, i16, i32, i32, i32, i32, i16, i16, i8, i8, i8, i8, i8, i8, i8 }
%struct.Curl_llist_node = type { ptr, ptr, ptr, ptr }
%struct.hostname = type { ptr, ptr, ptr, ptr }
%struct.proxy_info = type { %struct.hostname, i32, i8, ptr, ptr }
%struct.ip_quadruple = type { [46 x i8], [46 x i8], i32, i32 }
%struct.anon = type { [2 x %struct.curltime], i32 }
%struct.easy_pollset = type { [5 x i32], i32, [5 x i8] }
%struct.ssl_primary_config = type { ptr, ptr, ptr, ptr, ptr, ptr, ptr, ptr, ptr, ptr, ptr, ptr, ptr, ptr, i8, i32, i8, i8 }
%struct.ConnectBits = type { i64 }
%struct.curltime = type { i64, i32 }
%struct.Curl_llist = type { ptr, ptr, ptr, i64 }
%struct.ntlmdata = type { i32, [8 x i8], i32, ptr }
%union.anon.1 = type { %struct.ftp_conn }
%struct.ftp_conn = type { %struct.pingpong, ptr, ptr, ptr, ptr, ptr, ptr, ptr, i8, i64, ptr, i64, i32, i32, i32, i32, i32, i16, i8, i8, i8, i8, i8 }
%struct.pingpong = type { i64, i8, ptr, i64, i64, %struct.curltime, i64, %struct.dynbuf, %struct.dynbuf, i64, i64, ptr, ptr }
%struct.dynbuf = type { ptr, i64, i64, i64 }
%struct.Curl_easy = type { i32, i64, i64, ptr, %struct.Curl_llist_node, %struct.Curl_llist_node, i32, i32, %struct.Curl_message, %struct.easy_pollset, %struct.Names, ptr, ptr, ptr, ptr, %struct.SingleRequest, %struct.UserDefined, ptr, ptr, ptr, %struct.Progress, %struct.UrlState, ptr, %struct.PureInfo, %struct.curl_tlssessioninfo }
%struct.Curl_message = type { %struct.Curl_llist_node, %struct.CURLMsg }
%struct.CURLMsg = type { i32, ptr, %union.anon }
%union.anon = type { ptr }
%struct.Names = type { ptr, i32 }
%struct.SingleRequest = type <{ i64, i64, i64, i64, %struct.curltime, i32, i32, i32, i32, i64, i32, i32, i8, i8, [2 x i8], i32, ptr, ptr, %struct.bufq, i64, i64, ptr, ptr, %union.anon.0, ptr, i8, i32, [3 x i8] }>
%struct.bufq = type { ptr, ptr, ptr, ptr, i64, i64, i64, i32 }
%union.anon.0 = type { ptr }
%struct.UserDefined = type <{ ptr, ptr, ptr, ptr, ptr, ptr, i64, i64, i64, ptr, ptr, i64, ptr, ptr, ptr, ptr, ptr, ptr, ptr, ptr, ptr, ptr, ptr, ptr, ptr, ptr, ptr, ptr, ptr, ptr, ptr, ptr, ptr, ptr, ptr, i64, i64, i64, i64, i64, i64, i64, i64, i64, ptr, ptr, %struct.curl_mimepart, ptr, ptr, ptr, i64, %struct.ssl_config_data, %struct.ssl_config_data, ptr, i16, i8, i8, %struct.ssl_general_config, i32, i32, i32, [4 x i8], ptr, ptr, i64, i32, i8, i8, i8, i8, ptr, ptr, ptr, i32, [4 x i8], [74 x ptr], [8 x ptr], i32, i32, i32, [4 x i8], ptr, i32, [4 x i8], ptr, ptr, ptr, ptr, ptr, i32, i32, i32, i32, i32, i32, i32, i32, i64, ptr, ptr, i64, ptr, i64, ptr, ptr, ptr, ptr, i32, i16, i16, i16, i8, i8, i8, i8, i8, i8, i8, i8, i64, [6 x i8] }>
%struct.curl_mimepart = type { ptr, ptr, i32, i32, ptr, ptr, ptr, ptr, ptr, ptr, ptr, ptr, ptr, ptr, ptr, i64, %struct.mime_state, ptr, %struct.mime_encoder_state, i64 }
%struct.mime_state = type { i32, ptr, i64 }
%struct.mime_encoder_state = type { i64, i64, i64, [256 x i8] }
%struct.ssl_config_data = type { %struct.ssl_primary_config, i64, ptr, ptr, ptr, ptr, ptr, ptr, ptr, i16 }
%struct.ssl_general_config = type { i32 }
%struct.Progress = type { i64, %struct.pgrs_dir, %struct.pgrs_dir, i64, i64, i32, i32, i64, i64, i64, i64, i64, i64, i64, i64, i64, %struct.curltime, %struct.curltime, %struct.curltime, %struct.curltime, %struct.curltime, [6 x i64], [6 x %struct.curltime], i32, i8 }
%struct.pgrs_dir = type { i64, i64, i64, %struct.pgrs_measure }
%struct.pgrs_measure = type { %struct.curltime, i64 }
%struct.UrlState = type { %struct.curltime, i64, i64, %struct.dynbuf, ptr, i64, ptr, i32, i32, i32, ptr, i32, i64, i32, ptr, %struct.digestdata, %struct.digestdata, %struct.auth, %struct.auth, %struct.Curl_async, ptr, i8, %struct.curltime, %struct.Curl_tree, %struct.Curl_llist, [15 x %struct.time_node], ptr, ptr, i64, i64, i64, i64, [32 x i8], i64, ptr, ptr, ptr, %struct.urlpieces, ptr, ptr, ptr, ptr, ptr, i64, %struct.dynbuf, %struct.Curl_llist, [2 x %struct.curl_header], ptr, i32, ptr, ptr, %struct.store_netrc, %struct.dynamically_allocated_data, i8, i8, i8, i8, i32 }
%struct.digestdata = type { ptr, ptr, ptr, ptr, ptr, ptr, i32, i8, i8 }
%struct.auth = type { i64, i64, i64, i8 }
%struct.Curl_async = type { ptr, ptr, ptr, ptr, i32, i32, i8 }
%struct.Curl_tree = type { ptr, ptr, ptr, ptr, %struct.curltime, ptr }
%struct.time_node = type { %struct.Curl_llist_node, %struct.curltime, i32 }
%struct.urlpieces = type { ptr, ptr, ptr, ptr, ptr, ptr, ptr, ptr }
%struct.curl_header = type { ptr, ptr, i64, i64, i32, ptr }
%struct.store_netrc = type { %struct.dynbuf, ptr, i8 }
%struct.dynamically_allocated_data = type { ptr, ptr, ptr, ptr, ptr, ptr, ptr, ptr, ptr, ptr, ptr, ptr, ptr, ptr }
%struct.PureInfo = type { i32, i32, i32, i64, i64, i64, i64, i64, i64, i64, ptr, ptr, i64, i32, %struct.ip_quadruple, i32, ptr, i32, %struct.curl_certinfo, i32, i8 }
%struct.curl_certinfo = type { i32, ptr }
%struct.curl_tlssessioninfo = type { i32, ptr }
%struct.SMTP = type { i32, ptr, ptr, i32, i64, i8 }
%struct.smtp_conn = type { %struct.pingpong, %struct.SASL, i32, ptr, i8 }
%struct.SASL = type { ptr, i32, ptr, i16, i16, i16, i8 }

@Curl_trc_feat_smtp = external global %struct.curl_trc_feat, align 8
@.str.68 = private unnamed_addr constant [28 x i8] c"smtp_doing() -> %d, done=%d\00", align 1

; Function Attrs: nounwind uwtable
define internal i32 @smtp_dophase_done(ptr noundef %0, i1 noundef zeroext %1) #0 {
  %3 = alloca ptr, align 8
  %4 = alloca i8, align 1
  %5 = alloca ptr, align 8
  store ptr %0, ptr %3, align 8, !tbaa !3
  %6 = zext i1 %1 to i8
  store i8 %6, ptr %4, align 1, !tbaa !83
  call void @llvm.lifetime.start.p0(i64 8, ptr %5) #7
  %7 = load ptr, ptr %3, align 8, !tbaa !3
  %8 = getelementptr inbounds nuw %struct.Curl_easy, ptr %7, i32 0, i32 15
  %9 = getelementptr inbounds nuw %struct.SingleRequest, ptr %8, i32 0, i32 23
  %10 = load ptr, ptr %9, align 8, !tbaa !88
  store ptr %10, ptr %5, align 8, !tbaa !89
  %11 = load ptr, ptr %5, align 8, !tbaa !89
  %12 = getelementptr inbounds nuw %struct.SMTP, ptr %11, i32 0, i32 0
  %13 = load i32, ptr %12, align 8, !tbaa !96
  %14 = icmp ne i32 %13, 0
  br i1 %14, label %15, label %17

15:                                               ; preds = %2
  %16 = load ptr, ptr %3, align 8, !tbaa !3
  call void @Curl_xfer_setup_nop(ptr noundef %16)
  br label %17

17:                                               ; preds = %15, %2
  call void @llvm.lifetime.end.p0(i64 8, ptr %5) #7
  ret i32 0
}

; Function Attrs: nounwind uwtable
define internal i32 @smtp_multi_statemach(ptr noundef %0, ptr noundef %1) #0 {
  %3 = alloca i32, align 4
  %4 = alloca ptr, align 8
  %5 = alloca ptr, align 8
  %6 = alloca i32, align 4
  %7 = alloca ptr, align 8
  %8 = alloca ptr, align 8
  %9 = alloca i8, align 1
  %10 = alloca i32, align 4
  store ptr %0, ptr %4, align 8, !tbaa !3
  store ptr %1, ptr %5, align 8, !tbaa !81
  call void @llvm.lifetime.start.p0(i64 4, ptr %6) #7
  store i32 0, ptr %6, align 4, !tbaa !10
  call void @llvm.lifetime.start.p0(i64 8, ptr %7) #7
  %11 = load ptr, ptr %4, align 8, !tbaa !3
  %12 = getelementptr inbounds nuw %struct.Curl_easy, ptr %11, i32 0, i32 3
  %13 = load ptr, ptr %12, align 8, !tbaa !87
  store ptr %13, ptr %7, align 8, !tbaa !8
  call void @llvm.lifetime.start.p0(i64 8, ptr %8) #7
  %14 = load ptr, ptr %7, align 8, !tbaa !8
  %15 = getelementptr inbounds nuw %struct.connectdata, ptr %14, i32 0, i32 43
  store ptr %15, ptr %8, align 8, !tbaa !97
  %16 = load ptr, ptr %7, align 8, !tbaa !8
  %17 = call zeroext i1 @Curl_conn_is_ssl(ptr noundef %16, i32 noundef 0)
  br i1 %17, label %18, label %53

18:                                               ; preds = %2
  %19 = load ptr, ptr %8, align 8, !tbaa !97
  %20 = getelementptr inbounds nuw %struct.smtp_conn, ptr %19, i32 0, i32 4
  %21 = load i8, ptr %20, align 8
  %22 = and i8 %21, 1
  %23 = zext i8 %22 to i32
  %24 = icmp ne i32 %23, 0
  br i1 %24, label %53, label %25

25:                                               ; preds = %18
  call void @llvm.lifetime.start.p0(i64 1, ptr %9) #7
  store i8 0, ptr %9, align 1, !tbaa !83
  %26 = load ptr, ptr %4, align 8, !tbaa !3
  %27 = call i32 @Curl_conn_connect(ptr noundef %26, i32 noundef 0, i1 noundef zeroext false, ptr noundef %9)
  store i32 %27, ptr %6, align 4, !tbaa !10
  %28 = load i8, ptr %9, align 1, !tbaa !83, !range !85, !noundef !86
  %29 = trunc i8 %28 to i1
  %30 = zext i1 %29 to i32
  %31 = load ptr, ptr %8, align 8, !tbaa !97
  %32 = getelementptr inbounds nuw %struct.smtp_conn, ptr %31, i32 0, i32 4
  %33 = trunc i32 %30 to i8
  %34 = load i8, ptr %32, align 8
  %35 = and i8 %33, 1
  %36 = and i8 %34, -2
  %37 = or i8 %36, %35
  store i8 %37, ptr %32, align 8
  %38 = load i32, ptr %6, align 4, !tbaa !10
  %39 = icmp ne i32 %38, 0
  br i1 %39, label %47, label %40

40:                                               ; preds = %25
  %41 = load ptr, ptr %8, align 8, !tbaa !97
  %42 = getelementptr inbounds nuw %struct.smtp_conn, ptr %41, i32 0, i32 4
  %43 = load i8, ptr %42, align 8
  %44 = and i8 %43, 1
  %45 = zext i8 %44 to i32
  %46 = icmp ne i32 %45, 0
  br i1 %46, label %49, label %47

47:                                               ; preds = %40, %25
  %48 = load i32, ptr %6, align 4, !tbaa !10
  store i32 %48, ptr %3, align 4
  store i32 1, ptr %10, align 4
  br label %50

49:                                               ; preds = %40
  store i32 0, ptr %10, align 4
  br label %50

50:                                               ; preds = %49, %47
  call void @llvm.lifetime.end.p0(i64 1, ptr %9) #7
  %51 = load i32, ptr %10, align 4
  switch i32 %51, label %65 [
    i32 0, label %52
  ]

52:                                               ; preds = %50
  br label %53

53:                                               ; preds = %52, %18, %2
  %54 = load ptr, ptr %4, align 8, !tbaa !3
  %55 = load ptr, ptr %8, align 8, !tbaa !97
  %56 = getelementptr inbounds nuw %struct.smtp_conn, ptr %55, i32 0, i32 0
  %57 = call i32 @Curl_pp_statemach(ptr noundef %54, ptr noundef %56, i1 noundef zeroext false, i1 noundef zeroext false)
  store i32 %57, ptr %6, align 4, !tbaa !10
  %58 = load ptr, ptr %8, align 8, !tbaa !97
  %59 = getelementptr inbounds nuw %struct.smtp_conn, ptr %58, i32 0, i32 2
  %60 = load i32, ptr %59, align 8, !tbaa !105
  %61 = icmp eq i32 %60, 0
  %62 = load ptr, ptr %5, align 8, !tbaa !81
  %63 = zext i1 %61 to i8
  store i8 %63, ptr %62, align 1, !tbaa !83
  %64 = load i32, ptr %6, align 4, !tbaa !10
  store i32 %64, ptr %3, align 4
  store i32 1, ptr %10, align 4
  br label %65

65:                                               ; preds = %53, %50
  call void @llvm.lifetime.end.p0(i64 8, ptr %8) #7
  call void @llvm.lifetime.end.p0(i64 8, ptr %7) #7
  call void @llvm.lifetime.end.p0(i64 4, ptr %6) #7
  %66 = load i32, ptr %3, align 4
  ret i32 %66
}

; Function Attrs: nounwind uwtable
define internal i32 @smtp_doing(ptr noundef %0, ptr noundef %1) #0 {
  %3 = alloca ptr, align 8
  %4 = alloca ptr, align 8
  %5 = alloca i32, align 4
  store ptr %0, ptr %3, align 8, !tbaa !3
  store ptr %1, ptr %4, align 8, !tbaa !81
  call void @llvm.lifetime.start.p0(i64 4, ptr %5) #7
  %6 = load ptr, ptr %3, align 8, !tbaa !3
  %7 = load ptr, ptr %4, align 8, !tbaa !81
  %8 = call i32 @smtp_multi_statemach(ptr noundef %6, ptr noundef %7)
  store i32 %8, ptr %5, align 4, !tbaa !10
  %9 = load i32, ptr %5, align 4, !tbaa !10
  %10 = icmp ne i32 %9, 0
  br i1 %10, label %11, label %15

11:                                               ; preds = %2
  br label %12

12:                                               ; preds = %11
  br label %13

13:                                               ; preds = %12
  br label %14

14:                                               ; preds = %13
  br label %26

15:                                               ; preds = %2
  %16 = load ptr, ptr %4, align 8, !tbaa !81
  %17 = load i8, ptr %16, align 1, !tbaa !83, !range !85, !noundef !86
  %18 = trunc i8 %17 to i1
  br i1 %18, label %19, label %25

19:                                               ; preds = %15
  %20 = load ptr, ptr %3, align 8, !tbaa !3
  %21 = call i32 @smtp_dophase_done(ptr noundef %20, i1 noundef zeroext false)
  store i32 %21, ptr %5, align 4, !tbaa !10
  br label %22

22:                                               ; preds = %19
  br label %23

23:                                               ; preds = %22
  br label %24

24:                                               ; preds = %23
  br label %25

25:                                               ; preds = %24, %15
  br label %26

26:                                               ; preds = %25, %14
  br label %27

27:                                               ; preds = %26
  %28 = load ptr, ptr %3, align 8, !tbaa !3
  %29 = icmp ne ptr %28, null
  br i1 %29, label %30, label %63

30:                                               ; preds = %27
  %31 = load ptr, ptr %3, align 8, !tbaa !3
  %32 = getelementptr inbounds nuw %struct.Curl_easy, ptr %31, i32 0, i32 16
  %33 = getelementptr inbounds nuw %struct.UserDefined, ptr %32, i32 0, i32 119
  %34 = load i64, ptr %33, align 2
  %35 = lshr i64 %34, 31
  %36 = and i64 %35, 1
  %37 = trunc i64 %36 to i32
  %38 = icmp ne i32 %37, 0
  br i1 %38, label %39, label %63

39:                                               ; preds = %30
  %40 = load ptr, ptr %3, align 8, !tbaa !3
  %41 = getelementptr inbounds nuw %struct.Curl_easy, ptr %40, i32 0, i32 21
  %42 = getelementptr inbounds nuw %struct.UrlState, ptr %41, i32 0, i32 50
  %43 = load ptr, ptr %42, align 8, !tbaa !12
  %44 = icmp ne ptr %43, null
  br i1 %44, label %45, label %53

45:                                               ; preds = %39
  %46 = load ptr, ptr %3, align 8, !tbaa !3
  %47 = getelementptr inbounds nuw %struct.Curl_easy, ptr %46, i32 0, i32 21
  %48 = getelementptr inbounds nuw %struct.UrlState, ptr %47, i32 0, i32 50
  %49 = load ptr, ptr %48, align 8, !tbaa !12
  %50 = getelementptr inbounds nuw %struct.curl_trc_feat, ptr %49, i32 0, i32 1
  %51 = load i32, ptr %50, align 8, !tbaa !79
  %52 = icmp sge i32 %51, 1
  br i1 %52, label %53, label %63

53:                                               ; preds = %45, %39
  %54 = load i32, ptr getelementptr inbounds nuw (%struct.curl_trc_feat, ptr @Curl_trc_feat_smtp, i32 0, i32 1), align 8, !tbaa !79
  %55 = icmp sge i32 %54, 1
  br i1 %55, label %56, label %63

56:                                               ; preds = %53
  %57 = load ptr, ptr %3, align 8, !tbaa !3
  %58 = load i32, ptr %5, align 4, !tbaa !10
  %59 = load ptr, ptr %4, align 8, !tbaa !81
  %60 = load i8, ptr %59, align 1, !tbaa !83, !range !85, !noundef !86
  %61 = trunc i8 %60 to i1
  %62 = zext i1 %61 to i32
  call void (ptr, ptr, ...) @Curl_trc_smtp(ptr noundef %57, ptr noundef @.str.68, i32 noundef %58, i32 noundef %62)
  br label %63

63:                                               ; preds = %56, %53, %45, %30, %27
  br label %64

64:                                               ; preds = %63
  br label %65

65:                                               ; preds = %64
  %66 = load i32, ptr %5, align 4, !tbaa !10
  call void @llvm.lifetime.end.p0(i64 4, ptr %5) #7
  ret i32 %66
}