; Function Attrs: nounwind uwtable
define internal i32 @smtp_doing(ptr noundef %0, ptr noundef captures(none) %1) #0 {
  %3 = alloca i8, align 1
  %4 = getelementptr inbounds nuw i8, ptr %0, i64 24
  %5 = load ptr, ptr %4, align 8, !tbaa !90
  %6 = getelementptr inbounds nuw i8, ptr %5, i64 1088
  %7 = tail call zeroext i1 @Curl_conn_is_ssl(ptr noundef %5, i32 noundef 0) #9
  br i1 %7, label %8, label %.critedge.i

8:                                                ; preds = %2
  %9 = getelementptr inbounds nuw i8, ptr %5, i64 1296
  %10 = load i8, ptr %9, align 8
  %11 = and i8 %10, 1
  %.not.i = icmp eq i8 %11, 0
  br i1 %.not.i, label %12, label %.critedge.i

12:                                               ; preds = %8
  call void @llvm.lifetime.start.p0(i64 1, ptr nonnull %3) #9
  store i8 0, ptr %3, align 1, !tbaa !79
  %13 = call i32 @Curl_conn_connect(ptr noundef nonnull %0, i32 noundef 0, i1 noundef zeroext false, ptr noundef nonnull %3) #9
  %14 = load i8, ptr %3, align 1, !tbaa !79, !range !108, !noundef !109
  %15 = load i8, ptr %9, align 8
  %16 = and i8 %15, -2
  %17 = or disjoint i8 %16, %14
  store i8 %17, ptr %9, align 8
  %.not16.i = icmp ne i32 %13, 0
  %.not17.i = icmp eq i8 %14, 0
  %or.cond.i = or i1 %.not16.i, %.not17.i
  call void @llvm.lifetime.end.p0(i64 1, ptr nonnull %3) #9
  br i1 %or.cond.i, label %smtp_multi_statemach.exit, label %.critedge.i

.critedge.i:                                      ; preds = %12, %8, %2
  %18 = call i32 @Curl_pp_statemach(ptr noundef nonnull %0, ptr noundef nonnull %6, i1 noundef zeroext false, i1 noundef zeroext false) #9
  %19 = getelementptr inbounds nuw i8, ptr %5, i64 1280
  %20 = load i32, ptr %19, align 8, !tbaa !103
  %21 = icmp eq i32 %20, 0
  %22 = zext i1 %21 to i8
  store i8 %22, ptr %1, align 1, !tbaa !79
  br label %smtp_multi_statemach.exit

smtp_multi_statemach.exit:                        ; preds = %12, %.critedge.i
  %.1.i = phi i32 [ %18, %.critedge.i ], [ %13, %12 ]
  %.not = icmp eq i32 %.1.i, 0
  br i1 %.not, label %23, label %smtp_dophase_done.exit

23:                                               ; preds = %smtp_multi_statemach.exit
  %24 = load i8, ptr %1, align 1, !tbaa !79, !range !108, !noundef !109
  %25 = trunc nuw i8 %24 to i1
  br i1 %25, label %26, label %smtp_dophase_done.exit

26:                                               ; preds = %23
  %27 = getelementptr inbounds nuw i8, ptr %0, i64 440
  %28 = load ptr, ptr %27, align 8, !tbaa !7
  %29 = load i32, ptr %28, align 8, !tbaa !83
  %.not.i19 = icmp eq i32 %29, 0
  br i1 %.not.i19, label %smtp_dophase_done.exit, label %30

30:                                               ; preds = %26
  call void @Curl_xfer_setup_nop(ptr noundef nonnull %0) #9
  br label %smtp_dophase_done.exit

smtp_dophase_done.exit:                           ; preds = %23, %smtp_multi_statemach.exit, %26, %30
  %31 = getelementptr inbounds nuw i8, ptr %0, i64 2658
  %32 = load i64, ptr %31, align 2
  %33 = and i64 %32, 2147483648
  %.not17 = icmp eq i64 %33, 0
  br i1 %.not17, label %47, label %34

34:                                               ; preds = %smtp_dophase_done.exit
  %35 = getelementptr inbounds nuw i8, ptr %0, i64 4864
  %36 = load ptr, ptr %35, align 8, !tbaa !8
  %.not18 = icmp eq ptr %36, null
  br i1 %.not18, label %43, label %37

37:                                               ; preds = %34
  %38 = getelementptr inbounds nuw i8, ptr %36, i64 8
  %39 = load i32, ptr %38, align 8, !tbaa !77
  %40 = icmp sgt i32 %39, 0
  %41 = load i32, ptr getelementptr inbounds nuw (i8, ptr @Curl_trc_feat_smtp, i64 8), align 8
  %42 = icmp sgt i32 %41, 0
  %or.cond = select i1 %40, i1 %42, i1 false
  br i1 %or.cond, label %44, label %47

43:                                               ; preds = %34
  %.old = load i32, ptr getelementptr inbounds nuw (i8, ptr @Curl_trc_feat_smtp, i64 8), align 8, !tbaa !77
  %.old1 = icmp sgt i32 %.old, 0
  br i1 %.old1, label %44, label %47

44:                                               ; preds = %37, %43
  %45 = load i8, ptr %1, align 1, !tbaa !79, !range !108, !noundef !109
  %46 = zext nneg i8 %45 to i32
  call void (ptr, ptr, ...) @Curl_trc_smtp(ptr noundef nonnull %0, ptr noundef nonnull @.str.68, i32 noundef %.1.i, i32 noundef %46) #9
  br label %47

47:                                               ; preds = %44, %43, %37, %smtp_dophase_done.exit
  ret i32 %.1.i
}